target datalayout = "e-m:e-p270:32:32-p271:32:32-p272:64:64-i64:64-i128:128-f80:128-n8:16:32:64-S128"
target triple = "x86_64-unknown-linux-gnu"

%"struct.arrow::compute::RowTableMetadata" = type { i8, i32, i32, i32, i32, i32, %"class.std::vector", %"class.std::vector.0", %"class.std::vector.0", %"class.std::vector.0" }
%"class.std::vector" = type { %"struct.std::_Vector_base" }
%"struct.std::_Vector_base" = type { %"struct.std::_Vector_base<arrow::compute::KeyColumnMetadata, std::allocator<arrow::compute::KeyColumnMetadata>>::_Vector_impl" }
%"struct.std::_Vector_base<arrow::compute::KeyColumnMetadata, std::allocator<arrow::compute::KeyColumnMetadata>>::_Vector_impl" = type { %"struct.std::_Vector_base<arrow::compute::KeyColumnMetadata, std::allocator<arrow::compute::KeyColumnMetadata>>::_Vector_impl_data" }
%"struct.std::_Vector_base<arrow::compute::KeyColumnMetadata, std::allocator<arrow::compute::KeyColumnMetadata>>::_Vector_impl_data" = type { ptr, ptr, ptr }
%"class.std::vector.0" = type { %"struct.std::_Vector_base.1" }
%"struct.std::_Vector_base.1" = type { %"struct.std::_Vector_base<unsigned int, std::allocator<unsigned int>>::_Vector_impl" }
%"struct.std::_Vector_base<unsigned int, std::allocator<unsigned int>>::_Vector_impl" = type { %"struct.std::_Vector_base<unsigned int, std::allocator<unsigned int>>::_Vector_impl_data" }
%"struct.std::_Vector_base<unsigned int, std::allocator<unsigned int>>::_Vector_impl_data" = type { ptr, ptr, ptr }
%"class.arrow::compute::RowTableImpl" = type <{ ptr, %"struct.arrow::compute::RowTableMetadata", %"class.std::unique_ptr", %"class.std::unique_ptr", %"class.std::unique_ptr", [3 x ptr], i64, i64, i64, i64, i8, [7 x i8] }>
%"class.std::unique_ptr" = type { %"struct.std::__uniq_ptr_data" }
%"struct.std::__uniq_ptr_data" = type { %"class.std::__uniq_ptr_impl" }
%"class.std::__uniq_ptr_impl" = type { %"class.std::tuple" }
%"class.std::tuple" = type { %"struct.std::_Tuple_impl" }
%"struct.std::_Tuple_impl" = type { %"struct.std::_Head_base.7" }
%"struct.std::_Head_base.7" = type { ptr }

; Function Attrs: mustprogress nounwind uwtable
define noundef i64 @_ZNK5arrow7compute12RowTableImpl15size_null_masksEl(ptr noundef nonnull align 8 dereferenceable(209) %this, i64 noundef %num_rows) #0 align 2 {
entry:
  %this.addr = alloca ptr, align 8
  %num_rows.addr = alloca i64, align 8
  store ptr %this, ptr %this.addr, align 8
  store i64 %num_rows, ptr %num_rows.addr, align 8
  %this1 = load ptr, ptr %this.addr, align 8
  %0 = load i64, ptr %num_rows.addr, align 8
  %metadata_ = getelementptr inbounds %"class.arrow::compute::RowTableImpl", ptr %this1, i32 0, i32 1
  %null_masks_bytes_per_row = getelementptr inbounds %"struct.arrow::compute::RowTableMetadata", ptr %metadata_, i32 0, i32 3
  %1 = load i32, ptr %null_masks_bytes_per_row, align 4
  %conv = sext i32 %1 to i64
  %mul = mul nsw i64 %0, %conv
  %add = add nsw i64 %mul, 64
  ret i64 %add
}